CCS PCM C Compiler, Version 5.101, 43599               06-Apr-22 15:05

               Filename:   C:\Users\Admin\Documents\Micro\7 seg LED\clock\main.lst

               ROM used:   271 words (3%)
                           Largest free fragment is 2048
               RAM used:   10 (3%) at main() level
                           12 (3%) worst case
               Stack used: 1 locations
               Stack size: 8

*
0000:  MOVLW  00
0001:  MOVWF  0A
0002:  GOTO   03B
0003:  NOP
.................... #include <16F887.h>
.................... //////////// Standard Header file for the PIC16F887 device ////////////////
.................... ///////////////////////////////////////////////////////////////////////////
.................... ////        (C) Copyright 1996, 2020 Custom Computer Services          ////
.................... //// This source code may only be used by licensed users of the CCS C  ////
.................... //// compiler.  This source code may only be distributed to other      ////
.................... //// licensed users of the CCS C compiler.  No other use, reproduction ////
.................... //// or distribution is permitted without written permission.          ////
.................... //// Derivative programs created using this software in object code    ////
.................... //// form are not restricted in any way.                               ////
.................... ///////////////////////////////////////////////////////////////////////////
.................... #device PIC16F887
0004:  BCF    0A.0
0005:  BCF    0A.1
0006:  BCF    0A.2
0007:  ADDWF  02,F
0008:  RETLW  3F
0009:  RETLW  06
000A:  RETLW  5B
000B:  RETLW  4F
000C:  RETLW  66
000D:  RETLW  6D
000E:  RETLW  7D
000F:  RETLW  07
0010:  RETLW  7F
0011:  RETLW  6F
0012:  MOVF   25,W
0013:  CLRF   78
0014:  SUBWF  24,W
0015:  BTFSC  03.0
0016:  GOTO   01A
0017:  MOVF   24,W
0018:  MOVWF  77
0019:  GOTO   026
001A:  CLRF   77
001B:  MOVLW  08
001C:  MOVWF  26
001D:  RLF    24,F
001E:  RLF    77,F
001F:  MOVF   25,W
0020:  SUBWF  77,W
0021:  BTFSC  03.0
0022:  MOVWF  77
0023:  RLF    78,F
0024:  DECFSZ 26,F
0025:  GOTO   01D
0026:  RETURN
.................... 
.................... #list
.................... 
.................... #FUSES NOWDT, PUT, HS, NOPROTECT, NOLVP
.................... #USE DELAY(CLOCK=20M)
0027:  MOVLW  24
0028:  MOVWF  04
0029:  BCF    03.7
002A:  MOVF   00,W
002B:  BTFSC  03.2
002C:  GOTO   03A
002D:  MOVLW  06
002E:  MOVWF  78
002F:  CLRF   77
0030:  DECFSZ 77,F
0031:  GOTO   030
0032:  DECFSZ 78,F
0033:  GOTO   02F
0034:  MOVLW  7B
0035:  MOVWF  77
0036:  DECFSZ 77,F
0037:  GOTO   036
0038:  DECFSZ 00,F
0039:  GOTO   02D
003A:  RETURN
.................... const unsigned int8 Anode[10]={0xC0, 0xF9, 0xA4, 0xB0, 0x99, 0x92, 0x82, 0xF8, 0x80, 0x90};
.................... const unsigned int8 Cathode[10]={0x3F, 0x06, 0x5B, 0x4F, 0x66, 0x6D, 0x7D, 0x07, 0x7F, 0x6F};
.................... void main()
003B:  MOVF   03,W
003C:  ANDLW  1F
003D:  MOVWF  03
003E:  MOVLW  FF
003F:  MOVWF  20
0040:  BSF    03.5
0041:  BSF    03.6
0042:  MOVF   09,W
0043:  ANDLW  C0
0044:  MOVWF  09
0045:  BCF    03.6
0046:  BCF    1F.4
0047:  BCF    1F.5
0048:  MOVLW  00
0049:  BSF    03.6
004A:  MOVWF  08
004B:  BCF    03.5
004C:  CLRF   07
004D:  CLRF   08
004E:  CLRF   09
004F:  BCF    03.7
.................... {
....................    int8 i,k,j;
....................    set_tris_c(0x00);
0050:  MOVLW  00
0051:  BSF    03.5
0052:  BCF    03.6
0053:  MOVWF  07
0054:  BCF    03.5
0055:  MOVWF  20
....................    set_tris_d(0x00);
0056:  BSF    03.5
0057:  MOVWF  08
....................    while(true)
....................    {
....................    for (i=0;i<24;i++)
0058:  BCF    03.5
0059:  CLRF   21
005A:  MOVF   21,W
005B:  SUBLW  17
005C:  BTFSS  03.0
005D:  GOTO   10D
....................       {
....................       for (j=0;j<60;j++)
005E:  CLRF   23
005F:  MOVF   23,W
0060:  SUBLW  3B
0061:  BTFSS  03.0
0062:  GOTO   0D7
....................          {
....................          for (k=0;k<60;k++)
0063:  CLRF   22
0064:  MOVF   22,W
0065:  SUBLW  3B
0066:  BTFSS  03.0
0067:  GOTO   0A1
....................             {
....................                output_c(Cathode[k%10]);output_low(pin_d0);delay_ms(1);output_high(pin_d0);
0068:  MOVF   22,W
0069:  MOVWF  24
006A:  MOVLW  0A
006B:  MOVWF  25
006C:  CALL   012
006D:  MOVF   77,W
006E:  CALL   004
006F:  MOVWF  24
0070:  MOVLW  00
0071:  MOVWF  20
0072:  BSF    03.5
0073:  CLRF   07
0074:  BCF    03.5
0075:  MOVF   24,W
0076:  MOVWF  07
0077:  BSF    03.5
0078:  BCF    08.0
0079:  BCF    03.5
007A:  BCF    08.0
007B:  MOVLW  01
007C:  MOVWF  24
007D:  CALL   027
007E:  BSF    03.5
007F:  BCF    08.0
0080:  BCF    03.5
0081:  BSF    08.0
....................                output_c(Cathode[k/10]);output_low(pin_d1);delay_ms(1);output_high(pin_d1);
0082:  MOVF   22,W
0083:  MOVWF  24
0084:  MOVLW  0A
0085:  MOVWF  25
0086:  CALL   012
0087:  MOVF   78,W
0088:  CALL   004
0089:  MOVWF  24
008A:  MOVLW  00
008B:  MOVWF  20
008C:  BSF    03.5
008D:  CLRF   07
008E:  BCF    03.5
008F:  MOVF   24,W
0090:  MOVWF  07
0091:  BSF    03.5
0092:  BCF    08.1
0093:  BCF    03.5
0094:  BCF    08.1
0095:  MOVLW  01
0096:  MOVWF  24
0097:  CALL   027
0098:  BSF    03.5
0099:  BCF    08.1
009A:  BCF    03.5
009B:  BSF    08.1
....................                delay_ms(1);
009C:  MOVLW  01
009D:  MOVWF  24
009E:  CALL   027
009F:  INCF   22,F
00A0:  GOTO   064
....................             }
....................             output_c(Cathode[j%10]);output_low(pin_d2);delay_ms(1);output_high(pin_d2);
00A1:  MOVF   23,W
00A2:  MOVWF  24
00A3:  MOVLW  0A
00A4:  MOVWF  25
00A5:  CALL   012
00A6:  MOVF   77,W
00A7:  CALL   004
00A8:  MOVWF  24
00A9:  MOVLW  00
00AA:  MOVWF  20
00AB:  BSF    03.5
00AC:  CLRF   07
00AD:  BCF    03.5
00AE:  MOVF   24,W
00AF:  MOVWF  07
00B0:  BSF    03.5
00B1:  BCF    08.2
00B2:  BCF    03.5
00B3:  BCF    08.2
00B4:  MOVLW  01
00B5:  MOVWF  24
00B6:  CALL   027
00B7:  BSF    03.5
00B8:  BCF    08.2
00B9:  BCF    03.5
00BA:  BSF    08.2
....................             output_c(Cathode[j/10]);output_low(pin_d3);delay_ms(1);output_high(pin_d3);
00BB:  MOVF   23,W
00BC:  MOVWF  24
00BD:  MOVLW  0A
00BE:  MOVWF  25
00BF:  CALL   012
00C0:  MOVF   78,W
00C1:  CALL   004
00C2:  MOVWF  24
00C3:  MOVLW  00
00C4:  MOVWF  20
00C5:  BSF    03.5
00C6:  CLRF   07
00C7:  BCF    03.5
00C8:  MOVF   24,W
00C9:  MOVWF  07
00CA:  BSF    03.5
00CB:  BCF    08.3
00CC:  BCF    03.5
00CD:  BCF    08.3
00CE:  MOVLW  01
00CF:  MOVWF  24
00D0:  CALL   027
00D1:  BSF    03.5
00D2:  BCF    08.3
00D3:  BCF    03.5
00D4:  BSF    08.3
00D5:  INCF   23,F
00D6:  GOTO   05F
....................          }   
....................          output_c(Cathode[i%10]);output_low(pin_d4);delay_ms(1);output_high(pin_d4);
00D7:  MOVF   21,W
00D8:  MOVWF  24
00D9:  MOVLW  0A
00DA:  MOVWF  25
00DB:  CALL   012
00DC:  MOVF   77,W
00DD:  CALL   004
00DE:  MOVWF  24
00DF:  MOVLW  00
00E0:  MOVWF  20
00E1:  BSF    03.5
00E2:  CLRF   07
00E3:  BCF    03.5
00E4:  MOVF   24,W
00E5:  MOVWF  07
00E6:  BSF    03.5
00E7:  BCF    08.4
00E8:  BCF    03.5
00E9:  BCF    08.4
00EA:  MOVLW  01
00EB:  MOVWF  24
00EC:  CALL   027
00ED:  BSF    03.5
00EE:  BCF    08.4
00EF:  BCF    03.5
00F0:  BSF    08.4
....................          output_c(Cathode[i/10]);output_low(pin_d5);delay_ms(1);output_high(pin_d5);
00F1:  MOVF   21,W
00F2:  MOVWF  24
00F3:  MOVLW  0A
00F4:  MOVWF  25
00F5:  CALL   012
00F6:  MOVF   78,W
00F7:  CALL   004
00F8:  MOVWF  24
00F9:  MOVLW  00
00FA:  MOVWF  20
00FB:  BSF    03.5
00FC:  CLRF   07
00FD:  BCF    03.5
00FE:  MOVF   24,W
00FF:  MOVWF  07
0100:  BSF    03.5
0101:  BCF    08.5
0102:  BCF    03.5
0103:  BCF    08.5
0104:  MOVLW  01
0105:  MOVWF  24
0106:  CALL   027
0107:  BSF    03.5
0108:  BCF    08.5
0109:  BCF    03.5
010A:  BSF    08.5
010B:  INCF   21,F
010C:  GOTO   05A
....................        }
010D:  GOTO   059
....................     }
.................... }
010E:  SLEEP

Configuration Fuses:
   Word  1: 2FE2   HS NOWDT PUT MCLR NOPROTECT NOCPD BROWNOUT IESO FCMEN NOLVP NODEBUG
   Word  2: 3FFF   BORV40 NOWRT
